; ModuleID = '38/942.c'
source_filename = "38/942.c"
target datalayout = "e-m:e-p270:32:32-p271:32:32-p272:64:64-i64:64-f80:128-n8:16:32:64-S128"
target triple = "x86_64-pc-linux-gnu"

@.str = private unnamed_addr constant [3 x i8] c"%d\00", align 1
@.str.1 = private unnamed_addr constant [4 x i8] c"%lf\00", align 1
@.str.2 = private unnamed_addr constant [7 x i8] c"%.5lf\0A\00", align 1

; Function Attrs: noinline nounwind uwtable
define dso_local i32 @main() #0 {
  %1 = alloca i32, align 4
  %2 = alloca i32, align 4
  %3 = alloca i32, align 4
  %4 = alloca i32, align 4
  %5 = alloca i32, align 4
  %6 = alloca [100 x double], align 16
  %7 = alloca double, align 8
  %8 = alloca double, align 8
  %9 = alloca double, align 8
  %10 = alloca double, align 8
  store i32 0, i32* %1, align 4
  store double 0.000000e+00, double* %9, align 8
  store double 0.000000e+00, double* %10, align 8
  %11 = call i32 (i8*, ...) @__isoc99_scanf(i8* getelementptr inbounds ([3 x i8], [3 x i8]* @.str, i64 0, i64 0), i32* %2)
  store i32 0, i32* %4, align 4
  br label %12

12:                                               ; preds = %81, %0
  %13 = load i32, i32* %4, align 4
  %14 = load i32, i32* %2, align 4
  %15 = icmp slt i32 %13, %14
  br i1 %15, label %16, label %84

16:                                               ; preds = %12
  store double 0.000000e+00, double* %10, align 8
  %17 = call i32 (i8*, ...) @__isoc99_scanf(i8* getelementptr inbounds ([3 x i8], [3 x i8]* @.str, i64 0, i64 0), i32* %3)
  store i32 0, i32* %5, align 4
  br label %18

18:                                               ; preds = %27, %16
  %19 = load i32, i32* %5, align 4
  %20 = load i32, i32* %3, align 4
  %21 = icmp slt i32 %19, %20
  br i1 %21, label %22, label %30

22:                                               ; preds = %18
  %23 = load i32, i32* %5, align 4
  %24 = sext i32 %23 to i64
  %25 = getelementptr inbounds [100 x double], [100 x double]* %6, i64 0, i64 %24
  %26 = call i32 (i8*, ...) @__isoc99_scanf(i8* getelementptr inbounds ([4 x i8], [4 x i8]* @.str.1, i64 0, i64 0), double* %25)
  br label %27

27:                                               ; preds = %22
  %28 = load i32, i32* %5, align 4
  %29 = add nsw i32 %28, 1
  store i32 %29, i32* %5, align 4
  br label %18

30:                                               ; preds = %18
  store i32 0, i32* %5, align 4
  br label %31

31:                                               ; preds = %42, %30
  %32 = load i32, i32* %5, align 4
  %33 = load i32, i32* %3, align 4
  %34 = icmp slt i32 %32, %33
  br i1 %34, label %35, label %45

35:                                               ; preds = %31
  %36 = load double, double* %10, align 8
  %37 = load i32, i32* %5, align 4
  %38 = sext i32 %37 to i64
  %39 = getelementptr inbounds [100 x double], [100 x double]* %6, i64 0, i64 %38
  %40 = load double, double* %39, align 8
  %41 = fadd double %36, %40
  store double %41, double* %10, align 8
  br label %42

42:                                               ; preds = %35
  %43 = load i32, i32* %5, align 4
  %44 = add nsw i32 %43, 1
  store i32 %44, i32* %5, align 4
  br label %31

45:                                               ; preds = %31
  %46 = load double, double* %10, align 8
  %47 = load i32, i32* %3, align 4
  %48 = sitofp i32 %47 to double
  %49 = fdiv double %46, %48
  store double %49, double* %8, align 8
  store double 0.000000e+00, double* %9, align 8
  store i32 0, i32* %5, align 4
  br label %50

50:                                               ; preds = %70, %45
  %51 = load i32, i32* %5, align 4
  %52 = load i32, i32* %3, align 4
  %53 = icmp slt i32 %51, %52
  br i1 %53, label %54, label %73

54:                                               ; preds = %50
  %55 = load double, double* %9, align 8
  %56 = load i32, i32* %5, align 4
  %57 = sext i32 %56 to i64
  %58 = getelementptr inbounds [100 x double], [100 x double]* %6, i64 0, i64 %57
  %59 = load double, double* %58, align 8
  %60 = load double, double* %8, align 8
  %61 = fsub double %59, %60
  %62 = load i32, i32* %5, align 4
  %63 = sext i32 %62 to i64
  %64 = getelementptr inbounds [100 x double], [100 x double]* %6, i64 0, i64 %63
  %65 = load double, double* %64, align 8
  %66 = load double, double* %8, align 8
  %67 = fsub double %65, %66
  %68 = fmul double %61, %67
  %69 = fadd double %55, %68
  store double %69, double* %9, align 8
  br label %70

70:                                               ; preds = %54
  %71 = load i32, i32* %5, align 4
  %72 = add nsw i32 %71, 1
  store i32 %72, i32* %5, align 4
  br label %50

73:                                               ; preds = %50
  %74 = load double, double* %9, align 8
  %75 = load i32, i32* %3, align 4
  %76 = sitofp i32 %75 to double
  %77 = fdiv double %74, %76
  %78 = call double @sqrt(double %77) #3
  store double %78, double* %7, align 8
  %79 = load double, double* %7, align 8
  %80 = call i32 (i8*, ...) @printf(i8* getelementptr inbounds ([7 x i8], [7 x i8]* @.str.2, i64 0, i64 0), double %79)
  br label %81

81:                                               ; preds = %73
  %82 = load i32, i32* %4, align 4
  %83 = add nsw i32 %82, 1
  store i32 %83, i32* %4, align 4
  br label %12

84:                                               ; preds = %12
  ret i32 0
}

declare dso_local i32 @__isoc99_scanf(i8*, ...) #1

; Function Attrs: nounwind
declare dso_local double @sqrt(double) #2

declare dso_local i32 @printf(i8*, ...) #1


!llvm.module.flags = !{!0}
!llvm.ident = !{!1}

!0 = !{i32 1, !"wchar_size", i32 4}
!1 = !{!"clang version 10.0.0-4ubuntu1 "}
